target datalayout = "e-m:e-p270:32:32-p271:32:32-p272:64:64-i64:64-i128:128-f80:128-n8:16:32:64-S128"
target triple = "x86_64-pc-linux-gnu"

%class.mpff_manager = type <{ i32, i32, %class.svector, i32, i8, [3 x i8], %class.id_gen, [4 x %class.svector], %class.svector, %class.mpff, [8 x i8] }>
%class.id_gen = type { i32, %class.svector }
%class.svector = type { %class.vector }
%class.vector = type { ptr }
%class.mpff = type { i32, i32 }

; Function Attrs: mustprogress nounwind uwtable
define linkonce_odr hidden noundef ptr @_ZNK6vectorIjLb0EjE4dataEv(ptr noundef nonnull align 8 dereferenceable(8) %0) #5 comdat align 2 {
  %2 = alloca ptr, align 8
  store ptr %0, ptr %2, align 8, !tbaa !32
  %3 = load ptr, ptr %2, align 8
  %4 = getelementptr inbounds nuw %class.vector, ptr %3, i32 0, i32 0
  %5 = load ptr, ptr %4, align 8, !tbaa !35
  ret ptr %5
}

; Function Attrs: mustprogress nounwind uwtable
define linkonce_odr hidden noundef zeroext i1 @_ZN12mpff_manager6is_negERK4mpff(ptr noundef nonnull align 4 dereferenceable(8) %0) #5 comdat align 2 {
  %2 = alloca ptr, align 8
  store ptr %0, ptr %2, align 8, !tbaa !29
  %3 = load ptr, ptr %2, align 8, !tbaa !29
  %4 = load i32, ptr %3, align 4
  %5 = and i32 %4, 1
  %6 = icmp ne i32 %5, 0
  ret i1 %6
}

; Function Attrs: mustprogress uwtable
define linkonce_odr hidden noundef ptr @_ZNK12mpff_manager3sigERK4mpff(ptr noundef nonnull align 8 dereferenceable(89) %0, ptr noundef nonnull align 4 dereferenceable(8) %1) #4 comdat align 2 {
  %3 = alloca ptr, align 8
  %4 = alloca ptr, align 8
  store ptr %0, ptr %3, align 8, !tbaa !3
  store ptr %1, ptr %4, align 8, !tbaa !29
  %5 = load ptr, ptr %3, align 8
  %6 = getelementptr inbounds nuw %class.mpff_manager, ptr %5, i32 0, i32 2
  %7 = call noundef ptr @_ZNK6vectorIjLb0EjE4dataEv(ptr noundef nonnull align 8 dereferenceable(8) %6)
  %8 = load ptr, ptr %4, align 8, !tbaa !29
  %9 = load i32, ptr %8, align 4
  %10 = lshr i32 %9, 1
  %11 = getelementptr inbounds nuw %class.mpff_manager, ptr %5, i32 0, i32 0
  %12 = load i32, ptr %11, align 8, !tbaa !10
  %13 = mul i32 %10, %12
  %14 = zext i32 %13 to i64
  %15 = getelementptr inbounds nuw i32, ptr %7, i64 %14
  ret ptr %15
}

; Function Attrs: mustprogress nounwind uwtable
define linkonce_odr hidden noundef zeroext i1 @_ZN12mpff_manager7is_zeroERK4mpff(ptr noundef nonnull align 4 dereferenceable(8) %0) #5 comdat align 2 {
  %2 = alloca ptr, align 8
  store ptr %0, ptr %2, align 8, !tbaa !29
  %3 = load ptr, ptr %2, align 8, !tbaa !29
  %4 = load i32, ptr %3, align 4
  %5 = lshr i32 %4, 1
  %6 = icmp eq i32 %5, 0
  ret i1 %6
}

; Function Attrs: mustprogress uwtable
define hidden noundef zeroext i1 @_ZNK12mpff_manager8is_int64ERK4mpff(ptr noundef nonnull align 8 dereferenceable(89) %0, ptr noundef nonnull align 4 dereferenceable(8) %1) #4 align 2 {
  %3 = alloca i1, align 1
  %4 = alloca ptr, align 8
  %5 = alloca ptr, align 8
  %6 = alloca i32, align 4
  %7 = alloca i32, align 4
  %8 = alloca ptr, align 8
  store ptr %0, ptr %4, align 8, !tbaa !3
  store ptr %1, ptr %5, align 8, !tbaa !29
  %9 = load ptr, ptr %4, align 8
  %10 = load ptr, ptr %5, align 8, !tbaa !29
  %11 = call noundef zeroext i1 @_ZN12mpff_manager7is_zeroERK4mpff(ptr noundef nonnull align 4 dereferenceable(8) %10)
  br i1 %11, label %12, label %13

12:                                               ; preds = %2
  store i1 true, ptr %3, align 1
  br label %77

13:                                               ; preds = %2
  call void @llvm.lifetime.start.p0(i64 4, ptr %6) #3
  %14 = getelementptr inbounds nuw %class.mpff_manager, ptr %9, i32 0, i32 0
  %15 = load i32, ptr %14, align 8, !tbaa !10
  %16 = sub i32 %15, 2
  %17 = zext i32 %16 to i64
  %18 = mul i64 32, %17
  %19 = trunc i64 %18 to i32
  %20 = sub nsw i32 0, %19
  store i32 %20, ptr %6, align 4, !tbaa !8
  %21 = load ptr, ptr %5, align 8, !tbaa !29
  %22 = getelementptr inbounds nuw %class.mpff, ptr %21, i32 0, i32 1
  %23 = load i32, ptr %22, align 4, !tbaa !31
  %24 = load i32, ptr %6, align 4, !tbaa !8
  %25 = icmp slt i32 %23, %24
  br i1 %25, label %26, label %47

26:                                               ; preds = %13
  %27 = load ptr, ptr %5, align 8, !tbaa !29
  %28 = getelementptr inbounds nuw %class.mpff, ptr %27, i32 0, i32 1
  %29 = load i32, ptr %28, align 4, !tbaa !31
  %30 = getelementptr inbounds nuw %class.mpff_manager, ptr %9, i32 0, i32 1
  %31 = load i32, ptr %30, align 4, !tbaa !19
  %32 = sub nsw i32 0, %31
  %33 = icmp sgt i32 %29, %32
  br i1 %33, label %34, label %45

34:                                               ; preds = %26
  %35 = getelementptr inbounds nuw %class.mpff_manager, ptr %9, i32 0, i32 0
  %36 = load i32, ptr %35, align 8, !tbaa !10
  %37 = load ptr, ptr %5, align 8, !tbaa !29
  %38 = call noundef ptr @_ZNK12mpff_manager3sigERK4mpff(ptr noundef nonnull align 8 dereferenceable(89) %9, ptr noundef nonnull align 4 dereferenceable(8) %37)
  %39 = load ptr, ptr %5, align 8, !tbaa !29
  %40 = getelementptr inbounds nuw %class.mpff, ptr %39, i32 0, i32 1
  %41 = load i32, ptr %40, align 4, !tbaa !31
  %42 = sub nsw i32 0, %41
  %43 = call noundef zeroext i1 @_Z23has_one_at_first_k_bitsjPKjj(i32 noundef %36, ptr noundef %38, i32 noundef %42)
  %44 = xor i1 %43, true
  br label %45

45:                                               ; preds = %34, %26
  %46 = phi i1 [ false, %26 ], [ %44, %34 ]
  store i1 %46, ptr %3, align 1
  store i32 1, ptr %7, align 4
  br label %76

47:                                               ; preds = %13
  %48 = load ptr, ptr %5, align 8, !tbaa !29
  %49 = getelementptr inbounds nuw %class.mpff, ptr %48, i32 0, i32 1
  %50 = load i32, ptr %49, align 4, !tbaa !31
  %51 = load i32, ptr %6, align 4, !tbaa !8
  %52 = icmp eq i32 %50, %51
  br i1 %52, label %53, label %75

53:                                               ; preds = %47
  call void @llvm.lifetime.start.p0(i64 8, ptr %8) #3
  %54 = load ptr, ptr %5, align 8, !tbaa !29
  %55 = call noundef ptr @_ZNK12mpff_manager3sigERK4mpff(ptr noundef nonnull align 8 dereferenceable(89) %9, ptr noundef nonnull align 4 dereferenceable(8) %54)
  store ptr %55, ptr %8, align 8, !tbaa !36
  %56 = load ptr, ptr %5, align 8, !tbaa !29
  %57 = call noundef zeroext i1 @_ZN12mpff_manager6is_negERK4mpff(ptr noundef nonnull align 4 dereferenceable(8) %56)
  br i1 %57, label %58, label %73

58:                                               ; preds = %53
  %59 = load ptr, ptr %8, align 8, !tbaa !36
  %60 = getelementptr inbounds nuw %class.mpff_manager, ptr %9, i32 0, i32 0
  %61 = load i32, ptr %60, align 8, !tbaa !10
  %62 = sub i32 %61, 1
  %63 = zext i32 %62 to i64
  %64 = getelementptr inbounds nuw i32, ptr %59, i64 %63
  %65 = load i32, ptr %64, align 4, !tbaa !8
  %66 = icmp eq i32 %65, -2147483648
  br i1 %66, label %67, label %73

67:                                               ; preds = %58
  %68 = getelementptr inbounds nuw %class.mpff_manager, ptr %9, i32 0, i32 0
  %69 = load i32, ptr %68, align 8, !tbaa !10
  %70 = sub i32 %69, 1
  %71 = load ptr, ptr %8, align 8, !tbaa !36
  %72 = call noundef zeroext i1 @_Z7is_zerojPKj(i32 noundef %70, ptr noundef %71)
  br label %73

73:                                               ; preds = %67, %58, %53
  %74 = phi i1 [ false, %58 ], [ false, %53 ], [ %72, %67 ]
  store i1 %74, ptr %3, align 1
  store i32 1, ptr %7, align 4
  call void @llvm.lifetime.end.p0(i64 8, ptr %8) #3
  br label %76

75:                                               ; preds = %47
  store i1 false, ptr %3, align 1
  store i32 1, ptr %7, align 4
  br label %76

76:                                               ; preds = %75, %73, %45
  call void @llvm.lifetime.end.p0(i64 4, ptr %6) #3
  br label %77

77:                                               ; preds = %76, %12
  %78 = load i1, ptr %3, align 1
  ret i1 %78
}