; Function Attrs: mustprogress uwtable
define hidden noundef zeroext i1 @_ZNK12mpff_manager8is_int64ERK4mpff(ptr noundef nonnull readonly align 8 captures(none) dereferenceable(89) %0, ptr noundef nonnull readonly align 4 captures(none) dereferenceable(8) %1) local_unnamed_addr #3 align 2 {
  %3 = load i32, ptr %1, align 4
  %4 = icmp ult i32 %3, 2
  br i1 %4, label %45, label %5

5:                                                ; preds = %2
  %6 = load i32, ptr %0, align 8, !tbaa !13
  %7 = shl i32 %6, 5
  %8 = sub i32 64, %7
  %9 = getelementptr inbounds nuw i8, ptr %1, i64 4
  %10 = load i32, ptr %9, align 4, !tbaa !35
  %11 = icmp slt i32 %10, %8
  br i1 %11, label %12, label %27

12:                                               ; preds = %5
  %13 = getelementptr inbounds nuw i8, ptr %0, i64 4
  %14 = load i32, ptr %13, align 4, !tbaa !18
  %15 = sub nsw i32 0, %14
  %16 = icmp sgt i32 %10, %15
  br i1 %16, label %17, label %45

17:                                               ; preds = %12
  %18 = getelementptr inbounds nuw i8, ptr %0, i64 8
  %19 = load ptr, ptr %18, align 8, !tbaa !3
  %20 = lshr i32 %3, 1
  %21 = mul i32 %6, %20
  %22 = zext i32 %21 to i64
  %23 = getelementptr inbounds nuw i32, ptr %19, i64 %22
  %24 = sub nsw i32 0, %10
  %25 = tail call noundef zeroext i1 @_Z23has_one_at_first_k_bitsjPKjj(i32 noundef %6, ptr noundef %23, i32 noundef %24)
  %26 = xor i1 %25, true
  br label %45

27:                                               ; preds = %5
  %28 = icmp eq i32 %10, %8
  br i1 %28, label %29, label %45

29:                                               ; preds = %27
  %30 = getelementptr inbounds nuw i8, ptr %0, i64 8
  %31 = load ptr, ptr %30, align 8, !tbaa !3
  %32 = lshr i32 %3, 1
  %33 = mul i32 %6, %32
  %34 = zext i32 %33 to i64
  %35 = getelementptr inbounds nuw i32, ptr %31, i64 %34
  %36 = and i32 %3, 1
  %.not = icmp eq i32 %36, 0
  br i1 %.not, label %45, label %37

37:                                               ; preds = %29
  %38 = add i32 %6, -1
  %39 = zext i32 %38 to i64
  %40 = getelementptr inbounds nuw i32, ptr %35, i64 %39
  %41 = load i32, ptr %40, align 4, !tbaa !21
  %42 = icmp eq i32 %41, -2147483648
  br i1 %42, label %43, label %45

43:                                               ; preds = %37
  %44 = tail call noundef zeroext i1 @_Z7is_zerojPKj(i32 noundef %38, ptr noundef nonnull %35)
  br label %45

45:                                               ; preds = %17, %12, %43, %37, %29, %27, %2
  %.0 = phi i1 [ true, %2 ], [ false, %12 ], [ %26, %17 ], [ false, %37 ], [ false, %29 ], [ %44, %43 ], [ false, %27 ]
  ret i1 %.0
}